target datalayout = "e-m:e-p270:32:32-p271:32:32-p272:64:64-i64:64-i128:128-f80:128-n8:16:32:64-S128"
target triple = "x86_64-pc-linux-gnu"

%class.CommandData = type { %class.RAROptions, i8, i8, i32, i8, [2064 x i32], [2048 x i32], %class.StringList, %class.StringList, %class.StringList, %class.StringList, %class.StringList, %class.SecPassword, %"class.std::vector.0" }
%class.RAROptions = type { i32, i32, i8, i8, i8, i64, [2048 x i32], [2048 x i32], i32, i8, [2048 x i32], [2048 x i32], i32, i32, i32, i32, [2048 x i32], [2048 x i32], i8, i8, i8, [2048 x i32], i32, i32, i32, i32, i32, i32, i32, i32, i8, i8, i8, i8, i8, i32, i32, i8, i8, i8, i8, i8, i32, i32, i64, i32, i8, i8, i8, i32, i32, i8, i8, i8, i8, i32, i32, i8, i8, i8, i8, [128 x i32], [128 x i32], i8, i8, i8, i8, i8, %class.RarTime, %class.RarTime, %class.RarTime, i8, i8, i8, %class.RarTime, %class.RarTime, %class.RarTime, i8, i8, i8, i64, i64, i8, i8, i8, [16 x %struct.FilterMode], [2048 x i32], i32, i32, i32, i32, i32, i32, i8, [2048 x i32], i32, [2048 x i32], i32, i32, i64, ptr, ptr, ptr }
%class.RarTime = type { i64 }
%struct.FilterMode = type { i32, i32, i32 }
%class.StringList = type { %class.Array, i64, i64, [16 x i64], i64 }
%class.Array = type { ptr, i64, i64, i64 }
%class.SecPassword = type <{ %"class.std::vector", i8, [7 x i8] }>
%"class.std::vector" = type { %"struct.std::_Vector_base" }
%"struct.std::_Vector_base" = type { %"struct.std::_Vector_base<wchar_t, std::allocator<wchar_t>>::_Vector_impl" }
%"struct.std::_Vector_base<wchar_t, std::allocator<wchar_t>>::_Vector_impl" = type { %"struct.std::_Vector_base<wchar_t, std::allocator<wchar_t>>::_Vector_impl_data" }
%"struct.std::_Vector_base<wchar_t, std::allocator<wchar_t>>::_Vector_impl_data" = type { ptr, ptr, ptr }
%"class.std::vector.0" = type { %"struct.std::_Vector_base.1" }
%"struct.std::_Vector_base.1" = type { %"struct.std::_Vector_base<long, std::allocator<long>>::_Vector_impl" }
%"struct.std::_Vector_base<long, std::allocator<long>>::_Vector_impl" = type { %"struct.std::_Vector_base<long, std::allocator<long>>::_Vector_impl_data" }
%"struct.std::_Vector_base<long, std::allocator<long>>::_Vector_impl_data" = type { ptr, ptr, ptr }

@.str = private unnamed_addr constant [2 x i32] [i32 42, i32 0], align 4

; Function Attrs: mustprogress nounwind uwtable
define linkonce_odr noundef i64 @_ZN10StringList10ItemsCountEv(ptr noundef nonnull align 8 dereferenceable(184) %0) #1 comdat align 2 {
  %2 = alloca ptr, align 8
  store ptr %0, ptr %2, align 8
  %3 = load ptr, ptr %2, align 8
  %4 = getelementptr inbounds %class.StringList, ptr %3, i32 0, i32 2
  %5 = load i64, ptr %4, align 8
  ret i64 %5
}

; Function Attrs: mustprogress uwtable
define void @_ZN11CommandData9ParseDoneEv(ptr noundef nonnull align 8 dereferenceable(100904) %0) #0 align 2 {
  %2 = alloca ptr, align 8
  %3 = alloca i32, align 4
  %4 = alloca i8, align 1
  store ptr %0, ptr %2, align 8
  %5 = load ptr, ptr %2, align 8
  %6 = getelementptr inbounds %class.CommandData, ptr %5, i32 0, i32 7
  %7 = call noundef i64 @_ZN10StringList10ItemsCountEv(ptr noundef nonnull align 8 dereferenceable(184) %6)
  %8 = icmp eq i64 %7, 0
  br i1 %8, label %9, label %15

9:                                                ; preds = %1
  %10 = getelementptr inbounds %class.CommandData, ptr %5, i32 0, i32 1
  %11 = load i8, ptr %10, align 8
  %12 = trunc i8 %11 to i1
  br i1 %12, label %15, label %13

13:                                               ; preds = %9
  %14 = getelementptr inbounds %class.CommandData, ptr %5, i32 0, i32 7
  call void @_ZN10StringList9AddStringEPKw(ptr noundef nonnull align 8 dereferenceable(184) %14, ptr noundef @.str)
  br label %15

15:                                               ; preds = %13, %9, %1
  %16 = getelementptr inbounds %class.CommandData, ptr %5, i32 0, i32 5
  %17 = getelementptr inbounds [2064 x i32], ptr %16, i64 0, i64 0
  %18 = load i32, ptr %17, align 4
  %19 = call noundef i32 @_Z8toupperwi(i32 noundef %18)
  store i32 %19, ptr %3, align 4
  %20 = load i32, ptr %3, align 4
  %21 = icmp eq i32 %20, 88
  br i1 %21, label %28, label %22

22:                                               ; preds = %15
  %23 = load i32, ptr %3, align 4
  %24 = icmp eq i32 %23, 69
  br i1 %24, label %28, label %25

25:                                               ; preds = %22
  %26 = load i32, ptr %3, align 4
  %27 = icmp eq i32 %26, 80
  br label %28

28:                                               ; preds = %25, %22, %15
  %29 = phi i1 [ true, %22 ], [ true, %15 ], [ %27, %25 ]
  %30 = zext i1 %29 to i8
  store i8 %30, ptr %4, align 1
  %31 = getelementptr inbounds %class.RAROptions, ptr %5, i32 0, i32 83
  %32 = load i8, ptr %31, align 1
  %33 = trunc i8 %32 to i1
  br i1 %33, label %34, label %39

34:                                               ; preds = %28
  %35 = load i8, ptr %4, align 1
  %36 = trunc i8 %35 to i1
  br i1 %36, label %37, label %39

37:                                               ; preds = %34
  %38 = getelementptr inbounds %class.RAROptions, ptr %5, i32 0, i32 83
  store i8 0, ptr %38, align 1
  br label %39

39:                                               ; preds = %37, %34, %28
  %40 = load i32, ptr %3, align 4
  %41 = icmp eq i32 %40, 76
  br i1 %41, label %45, label %42

42:                                               ; preds = %39
  %43 = load i32, ptr %3, align 4
  %44 = icmp eq i32 %43, 86
  br i1 %44, label %45, label %52

45:                                               ; preds = %42, %39
  %46 = getelementptr inbounds %class.CommandData, ptr %5, i32 0, i32 5
  %47 = getelementptr inbounds [2064 x i32], ptr %46, i64 0, i64 1
  %48 = load i32, ptr %47, align 4
  %49 = icmp eq i32 %48, 66
  br i1 %49, label %50, label %52

50:                                               ; preds = %45
  %51 = getelementptr inbounds %class.CommandData, ptr %5, i32 0, i32 4
  store i8 1, ptr %51, align 8
  br label %52

52:                                               ; preds = %50, %45, %42
  ret void
}