; Function Attrs: mustprogress uwtable
define void @_ZN11CommandData9ParseDoneEv(ptr noundef nonnull align 8 dereferenceable(100904) %0) local_unnamed_addr #0 align 2 {
  %2 = getelementptr inbounds nuw i8, ptr %0, i64 99928
  %3 = getelementptr inbounds nuw i8, ptr %0, i64 99968
  %4 = load i64, ptr %3, align 8
  %5 = icmp eq i64 %4, 0
  br i1 %5, label %6, label %11

6:                                                ; preds = %1
  %7 = getelementptr inbounds nuw i8, ptr %0, i64 83464
  %8 = load i8, ptr %7, align 8
  %9 = trunc i8 %8 to i1
  br i1 %9, label %11, label %10

10:                                               ; preds = %6
  tail call void @_ZN10StringList9AddStringEPKw(ptr noundef nonnull align 8 dereferenceable(184) %2, ptr noundef nonnull @.str)
  br label %11

11:                                               ; preds = %10, %6, %1
  %12 = getelementptr inbounds nuw i8, ptr %0, i64 83476
  %13 = load i32, ptr %12, align 4
  %14 = tail call noundef i32 @_Z8toupperwi(i32 noundef %13)
  switch i32 %14, label %25 [
    i32 88, label %switch.edge
    i32 69, label %switch.edge
    i32 80, label %switch.edge
    i32 86, label %19
    i32 76, label %19
  ]

switch.edge:                                      ; preds = %11, %11, %11
  %15 = getelementptr inbounds nuw i8, ptr %0, i64 58617
  %16 = load i8, ptr %15, align 1
  %17 = trunc i8 %16 to i1
  br i1 %17, label %18, label %switch.edge.thread

18:                                               ; preds = %switch.edge
  store i8 0, ptr %15, align 1
  br label %switch.edge.thread

switch.edge.thread:                               ; preds = %switch.edge, %18
  switch i32 %14, label %25 [
    i32 86, label %19
    i32 76, label %19
  ]

19:                                               ; preds = %11, %11, %switch.edge.thread, %switch.edge.thread
  %20 = getelementptr inbounds nuw i8, ptr %0, i64 83480
  %21 = load i32, ptr %20, align 8
  %22 = icmp eq i32 %21, 66
  br i1 %22, label %23, label %25

23:                                               ; preds = %19
  %24 = getelementptr inbounds nuw i8, ptr %0, i64 83472
  store i8 1, ptr %24, align 8
  br label %25

25:                                               ; preds = %11, %switch.edge.thread, %23, %19
  ret void
}